target datalayout = "e-m:e-p270:32:32-p271:32:32-p272:64:64-i64:64-i128:128-f80:128-n8:16:32:64-S128"
target triple = "x86_64-pc-linux-gnu"

%struct.ssl_st = type { i32, ptr, ptr, ptr, %struct.CRYPTO_REF_COUNT, ptr, %struct.crypto_ex_data_st }
%struct.CRYPTO_REF_COUNT = type { i32 }
%struct.crypto_ex_data_st = type { ptr, ptr }
%struct.ssl_connection_st = type { %struct.ssl_st, ptr, i32, ptr, ptr, ptr, i32, ptr, i32, i32, i32, i32, %struct.OSSL_TIME, %struct.OSSL_TIME, %struct.ossl_statem_st, i32, ptr, ptr, i64, i64, i64, %struct.ossl_quic_tls_callbacks_st, ptr, ptr, %struct.anon, ptr, ptr, ptr, i32, ptr, %struct.ssl_dane_st, ptr, ptr, ptr, ptr, i32, [64 x i8], [64 x i8], [64 x i8], [64 x i8], [64 x i8], [64 x i8], [64 x i8], [64 x i8], [64 x i8], [64 x i8], [64 x i8], [64 x i8], ptr, [64 x i8], i64, i32, i64, [32 x i8], ptr, ptr, ptr, i64, ptr, [32 x i8], i64, i32, ptr, ptr, i32, i32, ptr, ptr, ptr, ptr, ptr, i64, ptr, ptr, i64, i32, i32, i32, i64, i32, i32, i64, i64, i64, %struct.anon.1, ptr, i32, ptr, ptr, ptr, i32, ptr, ptr, ptr, i32, i32, i32, i32, ptr, i64, i32, ptr, %struct.srp_ctx_st, ptr, %struct.record_layer_st, ptr, ptr, ptr, ptr, i64, i32, i32, i32, i64, i64, i64, ptr, ptr, ptr, ptr, ptr, i64, ptr, i64, ptr, i64 }
%struct.OSSL_TIME = type { i64 }
%struct.ossl_statem_st = type { i32, i32, i32, i32, i32, i32, i32, i32, i32, i32, i32, i32, i32, ptr, ptr, ptr, i8 }
%struct.ossl_quic_tls_callbacks_st = type { ptr, ptr, ptr, ptr, ptr, ptr }
%struct.anon = type { i64, [32 x i8], [32 x i8], ptr, ptr, i32, i32, i32, i32, [2 x i8], i32, i32, i32, i32, %struct.anon.0, [64 x i8], i64, [64 x i8], i64, i32, i32, ptr, i64, ptr, i64, i32, i8, i8, i16, ptr, i16 }
%struct.anon.0 = type { [128 x i8], i64, [128 x i8], i64, i64, i32, ptr, ptr, [4 x ptr], [4 x i16], i64, i32, ptr, i64, ptr, i64, ptr, ptr, ptr, i32, i64, ptr, i32, ptr, i64, ptr, i64, ptr, i64, ptr, ptr, ptr, ptr, i64, i64, ptr, ptr, i32, i32, i32, i32 }
%struct.ssl_dane_st = type { ptr, ptr, ptr, ptr, ptr, i32, i32, i32, i64 }
%struct.anon.1 = type { [29 x i8], ptr, ptr, ptr, i32, ptr, i16, i32, %struct.anon.2, i32, i32, i64, ptr, i64, ptr, i64, ptr, i64, ptr, i64, ptr, i64, ptr, ptr, ptr, ptr, ptr, ptr, ptr, i64, ptr, i64, i32, i32, i32, i32, ptr, i64, i32, i8, i32, [4 x i32], i32, i8, i8, i8, i8 }
%struct.anon.2 = type { ptr, ptr, ptr, i64 }
%struct.srp_ctx_st = type { ptr, ptr, ptr, ptr, ptr, ptr, ptr, ptr, ptr, ptr, ptr, ptr, ptr, ptr, i32, i64 }
%struct.record_layer_st = type { ptr, ptr, ptr, ptr, ptr, ptr, ptr, ptr, i64, i32, i64, [4 x i8], i64, i64, i8, ptr, i32, ptr, ptr, ptr, i64, i64, i64, i64, [32 x %struct.tls_record_st] }
%struct.tls_record_st = type { ptr, i32, i8, ptr, ptr, i64, i64, i16, [8 x i8] }
%struct.ssl_method_st = type { i32, i32, i64, ptr, ptr, ptr, ptr, ptr, ptr, ptr, ptr, ptr, ptr, ptr, ptr, ptr, ptr, ptr, ptr, ptr, ptr, ptr, ptr, ptr, ptr, ptr, ptr, ptr, ptr, ptr, ptr, ptr }
%struct.ssl3_enc_method = type { ptr, ptr, ptr, ptr, ptr, i64, ptr, i64, ptr, ptr, i32, ptr, ptr, ptr }
%struct.PACKET = type { ptr, i64 }
%struct.dtls1_state_st = type { [255 x i8], i64, i32, i16, i16, i16, ptr, ptr, i64, i64, %struct.hm_header_st, %struct.hm_header_st, i32, %struct.OSSL_TIME, i32, i32, ptr }
%struct.hm_header_st = type { i8, i64, i16, i64, i64, i32, %struct.dtls1_retransmit_state }
%struct.dtls1_retransmit_state = type { ptr, ptr }

@.str = private unnamed_addr constant [35 x i8] c"../openssl/ssl/statem/statem_lib.c\00", align 1
@__func__.tls_process_change_cipher_spec = private unnamed_addr constant [31 x i8] c"tls_process_change_cipher_spec\00", align 1

; Function Attrs: inlinehint nounwind uwtable
define internal i64 @PACKET_remaining(ptr noundef %0) #5 {
  %2 = alloca ptr, align 8
  store ptr %0, ptr %2, align 8, !tbaa !8
  %3 = load ptr, ptr %2, align 8, !tbaa !8
  %4 = getelementptr inbounds nuw %struct.PACKET, ptr %3, i32 0, i32 1
  %5 = load i64, ptr %4, align 8, !tbaa !164
  ret i64 %5
}

; Function Attrs: nounwind uwtable
define i32 @tls_process_change_cipher_spec(ptr noundef %0, ptr noundef %1) #0 {
  %3 = alloca i32, align 4
  %4 = alloca ptr, align 8
  %5 = alloca ptr, align 8
  %6 = alloca i64, align 8
  %7 = alloca i32, align 4
  store ptr %0, ptr %4, align 8, !tbaa !18
  store ptr %1, ptr %5, align 8, !tbaa !8
  call void @llvm.lifetime.start.p0(i64 8, ptr %6) #9
  %8 = load ptr, ptr %5, align 8, !tbaa !8
  %9 = call i64 @PACKET_remaining(ptr noundef %8)
  store i64 %9, ptr %6, align 8, !tbaa !76
  %10 = load ptr, ptr %4, align 8, !tbaa !18
  %11 = getelementptr inbounds nuw %struct.ssl_connection_st, ptr %10, i32 0, i32 0
  %12 = getelementptr inbounds nuw %struct.ssl_st, ptr %11, i32 0, i32 3
  %13 = load ptr, ptr %12, align 8, !tbaa !86
  %14 = getelementptr inbounds nuw %struct.ssl_method_st, ptr %13, i32 0, i32 28
  %15 = load ptr, ptr %14, align 8, !tbaa !87
  %16 = getelementptr inbounds nuw %struct.ssl3_enc_method, ptr %15, i32 0, i32 10
  %17 = load i32, ptr %16, align 8, !tbaa !90
  %18 = and i32 %17, 8
  %19 = icmp ne i32 %18, 0
  br i1 %19, label %20, label %39

20:                                               ; preds = %2
  %21 = load ptr, ptr %4, align 8, !tbaa !18
  %22 = getelementptr inbounds nuw %struct.ssl_connection_st, ptr %21, i32 0, i32 2
  %23 = load i32, ptr %22, align 8, !tbaa !95
  %24 = icmp eq i32 %23, 256
  br i1 %24, label %25, label %28

25:                                               ; preds = %20
  %26 = load i64, ptr %6, align 8, !tbaa !76
  %27 = icmp ne i64 %26, 2
  br i1 %27, label %36, label %28

28:                                               ; preds = %25, %20
  %29 = load ptr, ptr %4, align 8, !tbaa !18
  %30 = getelementptr inbounds nuw %struct.ssl_connection_st, ptr %29, i32 0, i32 2
  %31 = load i32, ptr %30, align 8, !tbaa !95
  %32 = icmp ne i32 %31, 256
  br i1 %32, label %33, label %38

33:                                               ; preds = %28
  %34 = load i64, ptr %6, align 8, !tbaa !76
  %35 = icmp ne i64 %34, 0
  br i1 %35, label %36, label %38

36:                                               ; preds = %33, %25
  call void @ERR_new()
  call void @ERR_set_debug(ptr noundef @.str, i32 noundef 794, ptr noundef @__func__.tls_process_change_cipher_spec)
  %37 = load ptr, ptr %4, align 8, !tbaa !18
  call void (ptr, i32, i32, ptr, ...) @ossl_statem_fatal(ptr noundef %37, i32 noundef 50, i32 noundef 103, ptr noundef null)
  store i32 0, ptr %3, align 4
  store i32 1, ptr %7, align 4
  br label %88

38:                                               ; preds = %33, %28
  br label %45

39:                                               ; preds = %2
  %40 = load i64, ptr %6, align 8, !tbaa !76
  %41 = icmp ne i64 %40, 0
  br i1 %41, label %42, label %44

42:                                               ; preds = %39
  call void @ERR_new()
  call void @ERR_set_debug(ptr noundef @.str, i32 noundef 799, ptr noundef @__func__.tls_process_change_cipher_spec)
  %43 = load ptr, ptr %4, align 8, !tbaa !18
  call void (ptr, i32, i32, ptr, ...) @ossl_statem_fatal(ptr noundef %43, i32 noundef 50, i32 noundef 103, ptr noundef null)
  store i32 0, ptr %3, align 4
  store i32 1, ptr %7, align 4
  br label %88

44:                                               ; preds = %39
  br label %45

45:                                               ; preds = %44, %38
  %46 = load ptr, ptr %4, align 8, !tbaa !18
  %47 = getelementptr inbounds nuw %struct.ssl_connection_st, ptr %46, i32 0, i32 24
  %48 = getelementptr inbounds nuw %struct.anon, ptr %47, i32 0, i32 14
  %49 = getelementptr inbounds nuw %struct.anon.0, ptr %48, i32 0, i32 6
  %50 = load ptr, ptr %49, align 8, !tbaa !181
  %51 = icmp eq ptr %50, null
  br i1 %51, label %52, label %54

52:                                               ; preds = %45
  call void @ERR_new()
  call void @ERR_set_debug(ptr noundef @.str, i32 noundef 806, ptr noundef @__func__.tls_process_change_cipher_spec)
  %53 = load ptr, ptr %4, align 8, !tbaa !18
  call void (ptr, i32, i32, ptr, ...) @ossl_statem_fatal(ptr noundef %53, i32 noundef 10, i32 noundef 133, ptr noundef null)
  store i32 0, ptr %3, align 4
  store i32 1, ptr %7, align 4
  br label %88

54:                                               ; preds = %45
  %55 = load ptr, ptr %4, align 8, !tbaa !18
  %56 = getelementptr inbounds nuw %struct.ssl_connection_st, ptr %55, i32 0, i32 24
  %57 = getelementptr inbounds nuw %struct.anon, ptr %56, i32 0, i32 5
  store i32 1, ptr %57, align 8, !tbaa !182
  %58 = load ptr, ptr %4, align 8, !tbaa !18
  %59 = call i32 @ssl3_do_change_cipher_spec(ptr noundef %58)
  %60 = icmp ne i32 %59, 0
  br i1 %60, label %63, label %61

61:                                               ; preds = %54
  call void @ERR_new()
  call void @ERR_set_debug(ptr noundef @.str, i32 noundef 812, ptr noundef @__func__.tls_process_change_cipher_spec)
  %62 = load ptr, ptr %4, align 8, !tbaa !18
  call void (ptr, i32, i32, ptr, ...) @ossl_statem_fatal(ptr noundef %62, i32 noundef 80, i32 noundef 786691, ptr noundef null)
  store i32 0, ptr %3, align 4
  store i32 1, ptr %7, align 4
  br label %88

63:                                               ; preds = %54
  %64 = load ptr, ptr %4, align 8, !tbaa !18
  %65 = getelementptr inbounds nuw %struct.ssl_connection_st, ptr %64, i32 0, i32 0
  %66 = getelementptr inbounds nuw %struct.ssl_st, ptr %65, i32 0, i32 3
  %67 = load ptr, ptr %66, align 8, !tbaa !86
  %68 = getelementptr inbounds nuw %struct.ssl_method_st, ptr %67, i32 0, i32 28
  %69 = load ptr, ptr %68, align 8, !tbaa !87
  %70 = getelementptr inbounds nuw %struct.ssl3_enc_method, ptr %69, i32 0, i32 10
  %71 = load i32, ptr %70, align 8, !tbaa !90
  %72 = and i32 %71, 8
  %73 = icmp ne i32 %72, 0
  br i1 %73, label %74, label %87

74:                                               ; preds = %63
  %75 = load ptr, ptr %4, align 8, !tbaa !18
  %76 = getelementptr inbounds nuw %struct.ssl_connection_st, ptr %75, i32 0, i32 2
  %77 = load i32, ptr %76, align 8, !tbaa !95
  %78 = icmp eq i32 %77, 256
  br i1 %78, label %79, label %86

79:                                               ; preds = %74
  %80 = load ptr, ptr %4, align 8, !tbaa !18
  %81 = getelementptr inbounds nuw %struct.ssl_connection_st, ptr %80, i32 0, i32 25
  %82 = load ptr, ptr %81, align 8, !tbaa !183
  %83 = getelementptr inbounds nuw %struct.dtls1_state_st, ptr %82, i32 0, i32 5
  %84 = load i16, ptr %83, align 8, !tbaa !184
  %85 = add i16 %84, 1
  store i16 %85, ptr %83, align 8, !tbaa !184
  br label %86

86:                                               ; preds = %79, %74
  br label %87

87:                                               ; preds = %86, %63
  store i32 3, ptr %3, align 4
  store i32 1, ptr %7, align 4
  br label %88

88:                                               ; preds = %87, %61, %52, %42, %36
  call void @llvm.lifetime.end.p0(i64 8, ptr %6) #9
  %89 = load i32, ptr %3, align 4
  ret i32 %89
}