; Function Attrs: nounwind uwtable
define range(i32 0, 4) i32 @tls_process_change_cipher_spec(ptr noundef %0, ptr noundef readonly captures(none) %1) local_unnamed_addr #0 {
  %3 = getelementptr i8, ptr %1, i64 8
  %.val = load i64, ptr %3, align 8, !tbaa !145
  %4 = getelementptr inbounds nuw i8, ptr %0, i64 24
  %5 = load ptr, ptr %4, align 8, !tbaa !81
  %6 = getelementptr inbounds nuw i8, ptr %5, i64 216
  %7 = load ptr, ptr %6, align 8, !tbaa !82
  %8 = getelementptr inbounds nuw i8, ptr %7, i64 80
  %9 = load i32, ptr %8, align 8, !tbaa !85
  %10 = and i32 %9, 8
  %.not = icmp eq i32 %10, 0
  br i1 %.not, label %20, label %11

11:                                               ; preds = %2
  %12 = getelementptr inbounds nuw i8, ptr %0, i64 72
  %13 = load i32, ptr %12, align 8, !tbaa !90
  %14 = icmp eq i32 %13, 256
  %15 = icmp ne i64 %.val, 2
  %or.cond = select i1 %14, i1 %15, i1 false
  br i1 %or.cond, label %19, label %16

16:                                               ; preds = %11
  %17 = icmp ne i32 %13, 256
  %18 = icmp ne i64 %.val, 0
  %or.cond3 = select i1 %17, i1 %18, i1 false
  br i1 %or.cond3, label %19, label %22

19:                                               ; preds = %16, %11
  tail call void @ERR_new() #11
  tail call void @ERR_set_debug(ptr noundef nonnull @.str, i32 noundef 794, ptr noundef nonnull @__func__.tls_process_change_cipher_spec) #11
  tail call void (ptr, i32, i32, ptr, ...) @ossl_statem_fatal(ptr noundef nonnull %0, i32 noundef 50, i32 noundef 103, ptr noundef null) #11
  br label %48

20:                                               ; preds = %2
  %.not20 = icmp eq i64 %.val, 0
  br i1 %.not20, label %22, label %21

21:                                               ; preds = %20
  tail call void @ERR_new() #11
  tail call void @ERR_set_debug(ptr noundef nonnull @.str, i32 noundef 799, ptr noundef nonnull @__func__.tls_process_change_cipher_spec) #11
  tail call void (ptr, i32, i32, ptr, ...) @ossl_statem_fatal(ptr noundef nonnull %0, i32 noundef 50, i32 noundef 103, ptr noundef null) #11
  br label %48

22:                                               ; preds = %20, %16
  %23 = getelementptr inbounds nuw i8, ptr %0, i64 768
  %24 = load ptr, ptr %23, align 8, !tbaa !159
  %25 = icmp eq ptr %24, null
  br i1 %25, label %26, label %27

26:                                               ; preds = %22
  tail call void @ERR_new() #11
  tail call void @ERR_set_debug(ptr noundef nonnull @.str, i32 noundef 806, ptr noundef nonnull @__func__.tls_process_change_cipher_spec) #11
  tail call void (ptr, i32, i32, ptr, ...) @ossl_statem_fatal(ptr noundef nonnull %0, i32 noundef 10, i32 noundef 133, ptr noundef null) #11
  br label %48

27:                                               ; preds = %22
  %28 = getelementptr inbounds nuw i8, ptr %0, i64 440
  store i32 1, ptr %28, align 8, !tbaa !160
  %29 = tail call i32 @ssl3_do_change_cipher_spec(ptr noundef nonnull %0) #11
  %.not21 = icmp eq i32 %29, 0
  br i1 %.not21, label %30, label %31

30:                                               ; preds = %27
  tail call void @ERR_new() #11
  tail call void @ERR_set_debug(ptr noundef nonnull @.str, i32 noundef 812, ptr noundef nonnull @__func__.tls_process_change_cipher_spec) #11
  tail call void (ptr, i32, i32, ptr, ...) @ossl_statem_fatal(ptr noundef nonnull %0, i32 noundef 80, i32 noundef 786691, ptr noundef null) #11
  br label %48

31:                                               ; preds = %27
  %32 = load ptr, ptr %4, align 8, !tbaa !81
  %33 = getelementptr inbounds nuw i8, ptr %32, i64 216
  %34 = load ptr, ptr %33, align 8, !tbaa !82
  %35 = getelementptr inbounds nuw i8, ptr %34, i64 80
  %36 = load i32, ptr %35, align 8, !tbaa !85
  %37 = and i32 %36, 8
  %.not22 = icmp eq i32 %37, 0
  br i1 %.not22, label %48, label %38

38:                                               ; preds = %31
  %39 = getelementptr inbounds nuw i8, ptr %0, i64 72
  %40 = load i32, ptr %39, align 8, !tbaa !90
  %41 = icmp eq i32 %40, 256
  br i1 %41, label %42, label %48

42:                                               ; preds = %38
  %43 = getelementptr inbounds nuw i8, ptr %0, i64 1264
  %44 = load ptr, ptr %43, align 8, !tbaa !161
  %45 = getelementptr inbounds nuw i8, ptr %44, i64 272
  %46 = load i16, ptr %45, align 8, !tbaa !162
  %47 = add i16 %46, 1
  store i16 %47, ptr %45, align 8, !tbaa !162
  br label %48

48:                                               ; preds = %31, %42, %38, %30, %26, %21, %19
  %.0 = phi i32 [ 0, %19 ], [ 0, %26 ], [ 0, %30 ], [ 0, %21 ], [ 3, %38 ], [ 3, %42 ], [ 3, %31 ]
  ret i32 %.0
}